ARM GAS  C:\Users\user\AppData\Local\Temp\cc3xHgQY.s 			page 1


   1              		.syntax unified
   2              		.cpu cortex-m3
   3              		.fpu softvfp
   4              		.eabi_attribute 20, 1
   5              		.eabi_attribute 21, 1
   6              		.eabi_attribute 23, 3
   7              		.eabi_attribute 24, 1
   8              		.eabi_attribute 25, 1
   9              		.eabi_attribute 26, 1
  10              		.eabi_attribute 30, 1
  11              		.eabi_attribute 34, 1
  12              		.eabi_attribute 18, 4
  13              		.thumb
  14              		.syntax unified
  15              		.file	"main.c"
  16              		.text
  17              	.Ltext0:
  18              		.cfi_sections	.debug_frame
  19              		.section	.text.I2C_Write,"ax",%progbits
  20              		.align	2
  21              		.global	I2C_Write
  22              		.thumb
  23              		.thumb_func
  24              		.type	I2C_Write, %function
  25              	I2C_Write:
  26              	.LFB64:
  27              		.file 1 "main.c"
   1:main.c        **** #include "project.h"
   2:main.c        **** #include <stdlib.h>
   3:main.c        **** #include <stdio.h>
   4:main.c        **** 
   5:main.c        **** // Definitions
   6:main.c        **** #define SCD30_I2C_ADDRESS 0x61
   7:main.c        **** #define VREF 5.0
   8:main.c        **** #define ADC_MAX_VALUE 4095
   9:main.c        **** #define VTHRESHOLD (VREF * 0.63) // 63% charged up of capacitor
  10:main.c        **** #define R 10000.0 // 10k ohm resistor
  11:main.c        **** #define TIMER_RESOLUTION 2.0e-6
  12:main.c        **** #define CORRECTION_FACTOR 1.0e3
  13:main.c        **** 
  14:main.c        **** // Function prototypes
  15:main.c        **** void I2C_Write(uint8_t *data, uint8_t length);
  16:main.c        **** void I2C_Read(uint8_t *data, uint8_t length);
  17:main.c        **** void read_sensor_data();
  18:main.c        **** void read_capacitance();
  19:main.c        **** // Global variables
  20:main.c        **** char string_1[100];
  21:main.c        **** uint8_t buffer[18]; // Buffer for 18 bytes of data
  22:main.c        **** uint16 adcResult;
  23:main.c        **** 
  24:main.c        **** void I2C_Write(uint8_t *data, uint8_t length) {
  28              		.loc 1 24 0
  29              		.cfi_startproc
  30              		@ args = 0, pretend = 0, frame = 0
  31              		@ frame_needed = 0, uses_anonymous_args = 0
  32              	.LVL0:
  33 0000 08B5     		push	{r3, lr}
ARM GAS  C:\Users\user\AppData\Local\Temp\cc3xHgQY.s 			page 2


  34              		.cfi_def_cfa_offset 8
  35              		.cfi_offset 3, -8
  36              		.cfi_offset 14, -4
  25:main.c        ****     I2C_1_MasterWriteBuf(SCD30_I2C_ADDRESS, data, length, I2C_1_MODE_COMPLETE_XFER);
  37              		.loc 1 25 0
  38 0002 0023     		movs	r3, #0
  39 0004 0A46     		mov	r2, r1
  40 0006 0146     		mov	r1, r0
  41              	.LVL1:
  42 0008 6120     		movs	r0, #97
  43              	.LVL2:
  44 000a FFF7FEFF 		bl	I2C_1_MasterWriteBuf
  45              	.LVL3:
  46              	.L2:
  26:main.c        ****     while(I2C_1_MasterStatus() & I2C_1_MSTAT_XFER_INP);
  47              		.loc 1 26 0 discriminator 1
  48 000e FFF7FEFF 		bl	I2C_1_MasterStatus
  49              	.LVL4:
  50 0012 10F0040F 		tst	r0, #4
  51 0016 FAD1     		bne	.L2
  27:main.c        **** }
  52              		.loc 1 27 0
  53 0018 08BD     		pop	{r3, pc}
  54              		.cfi_endproc
  55              	.LFE64:
  56              		.size	I2C_Write, .-I2C_Write
  57 001a 00BF     		.section	.text.I2C_Read,"ax",%progbits
  58              		.align	2
  59              		.global	I2C_Read
  60              		.thumb
  61              		.thumb_func
  62              		.type	I2C_Read, %function
  63              	I2C_Read:
  64              	.LFB65:
  28:main.c        **** 
  29:main.c        **** void I2C_Read(uint8_t *data, uint8_t length) {
  65              		.loc 1 29 0
  66              		.cfi_startproc
  67              		@ args = 0, pretend = 0, frame = 0
  68              		@ frame_needed = 0, uses_anonymous_args = 0
  69              	.LVL5:
  70 0000 08B5     		push	{r3, lr}
  71              		.cfi_def_cfa_offset 8
  72              		.cfi_offset 3, -8
  73              		.cfi_offset 14, -4
  30:main.c        ****     I2C_1_MasterReadBuf(SCD30_I2C_ADDRESS, data, length, I2C_1_MODE_COMPLETE_XFER);
  74              		.loc 1 30 0
  75 0002 0023     		movs	r3, #0
  76 0004 0A46     		mov	r2, r1
  77 0006 0146     		mov	r1, r0
  78              	.LVL6:
  79 0008 6120     		movs	r0, #97
  80              	.LVL7:
  81 000a FFF7FEFF 		bl	I2C_1_MasterReadBuf
  82              	.LVL8:
  83              	.L5:
  31:main.c        ****     while(I2C_1_MasterStatus() & I2C_1_MSTAT_XFER_INP);
ARM GAS  C:\Users\user\AppData\Local\Temp\cc3xHgQY.s 			page 3


  84              		.loc 1 31 0 discriminator 1
  85 000e FFF7FEFF 		bl	I2C_1_MasterStatus
  86              	.LVL9:
  87 0012 10F0040F 		tst	r0, #4
  88 0016 FAD1     		bne	.L5
  32:main.c        **** }
  89              		.loc 1 32 0
  90 0018 08BD     		pop	{r3, pc}
  91              		.cfi_endproc
  92              	.LFE65:
  93              		.size	I2C_Read, .-I2C_Read
  94              		.global	__aeabi_f2iz
  95 001a 00BF     		.section	.text.read_sensor_data,"ax",%progbits
  96              		.align	2
  97              		.global	read_sensor_data
  98              		.thumb
  99              		.thumb_func
 100              		.type	read_sensor_data, %function
 101              	read_sensor_data:
 102              	.LFB66:
  33:main.c        **** 
  34:main.c        **** void read_sensor_data()
  35:main.c        **** {
 103              		.loc 1 35 0
 104              		.cfi_startproc
 105              		@ args = 0, pretend = 0, frame = 0
 106              		@ frame_needed = 0, uses_anonymous_args = 0
 107 0000 70B5     		push	{r4, r5, r6, lr}
 108              		.cfi_def_cfa_offset 16
 109              		.cfi_offset 4, -16
 110              		.cfi_offset 5, -12
 111              		.cfi_offset 6, -8
 112              		.cfi_offset 14, -4
 113 0002 82B0     		sub	sp, sp, #8
 114              		.cfi_def_cfa_offset 24
  36:main.c        ****     // Ensure buffer is updated before reading values
  37:main.c        ****     I2C_Read(buffer, sizeof(buffer));  
 115              		.loc 1 37 0
 116 0004 1D4C     		ldr	r4, .L10
 117 0006 1221     		movs	r1, #18
 118 0008 2046     		mov	r0, r4
 119 000a FFF7FEFF 		bl	I2C_Read
 120              	.LVL10:
  38:main.c        **** 
  39:main.c        ****     uint32_t co2BytesUpper = (buffer[0] << 8) | buffer[1];
 121              		.loc 1 39 0
 122 000e 2078     		ldrb	r0, [r4]	@ zero_extendqisi2
 123 0010 6378     		ldrb	r3, [r4, #1]	@ zero_extendqisi2
 124 0012 43EA0022 		orr	r2, r3, r0, lsl #8
 125              	.LVL11:
  40:main.c        ****     uint32_t co2BytesLower = (buffer[3] << 8) | buffer[4];
 126              		.loc 1 40 0
 127 0016 E078     		ldrb	r0, [r4, #3]	@ zero_extendqisi2
 128 0018 2379     		ldrb	r3, [r4, #4]	@ zero_extendqisi2
 129 001a 43EA0023 		orr	r3, r3, r0, lsl #8
 130              	.LVL12:
  41:main.c        ****     uint32_t co2Bytes = ((uint32_t)co2BytesUpper << 16) | co2BytesLower;
ARM GAS  C:\Users\user\AppData\Local\Temp\cc3xHgQY.s 			page 4


  42:main.c        ****     int co2Concentration = (int)*(float*)&co2Bytes;
 131              		.loc 1 42 0
 132 001e 43EA0240 		orr	r0, r3, r2, lsl #16
 133              	.LVL13:
 134 0022 FFF7FEFF 		bl	__aeabi_f2iz
 135              	.LVL14:
 136 0026 0546     		mov	r5, r0
 137              	.LVL15:
  43:main.c        ****     
  44:main.c        ****     uint32_t tempBytesUpper = (buffer[6] << 8) | buffer[7];
 138              		.loc 1 44 0
 139 0028 A079     		ldrb	r0, [r4, #6]	@ zero_extendqisi2
 140              	.LVL16:
 141 002a E379     		ldrb	r3, [r4, #7]	@ zero_extendqisi2
 142 002c 43EA0022 		orr	r2, r3, r0, lsl #8
 143              	.LVL17:
  45:main.c        ****     uint32_t tempBytesLower = (buffer[9] << 8) | buffer[10];
 144              		.loc 1 45 0
 145 0030 607A     		ldrb	r0, [r4, #9]	@ zero_extendqisi2
 146 0032 A37A     		ldrb	r3, [r4, #10]	@ zero_extendqisi2
 147 0034 43EA0023 		orr	r3, r3, r0, lsl #8
 148              	.LVL18:
  46:main.c        ****     uint32_t tempBytes = ((uint32_t)tempBytesUpper << 16) | tempBytesLower;
  47:main.c        ****     int temperature = (int)*(float*)&tempBytes;
 149              		.loc 1 47 0
 150 0038 43EA0240 		orr	r0, r3, r2, lsl #16
 151              	.LVL19:
 152 003c FFF7FEFF 		bl	__aeabi_f2iz
 153              	.LVL20:
 154 0040 0646     		mov	r6, r0
 155              	.LVL21:
  48:main.c        ****     
  49:main.c        ****     uint32_t rhBytesUpper = (buffer[12] << 8) | buffer[13];
 156              		.loc 1 49 0
 157 0042 207B     		ldrb	r0, [r4, #12]	@ zero_extendqisi2
 158              	.LVL22:
 159 0044 637B     		ldrb	r3, [r4, #13]	@ zero_extendqisi2
 160 0046 43EA0022 		orr	r2, r3, r0, lsl #8
 161              	.LVL23:
  50:main.c        ****     uint32_t rhBytesLower = (buffer[15] << 8) | buffer[16];
 162              		.loc 1 50 0
 163 004a E07B     		ldrb	r0, [r4, #15]	@ zero_extendqisi2
 164 004c 237C     		ldrb	r3, [r4, #16]	@ zero_extendqisi2
 165 004e 43EA0023 		orr	r3, r3, r0, lsl #8
 166              	.LVL24:
  51:main.c        ****     uint32_t rhBytes = ((uint32_t)rhBytesUpper << 16) | rhBytesLower;
  52:main.c        ****     int rh = (int)*(float*)&rhBytes;
 167              		.loc 1 52 0
 168 0052 43EA0240 		orr	r0, r3, r2, lsl #16
 169              	.LVL25:
 170 0056 FFF7FEFF 		bl	__aeabi_f2iz
 171              	.LVL26:
  53:main.c        ****     
  54:main.c        **** //    float capacitance = read_capacitance();
  55:main.c        ****     
  56:main.c        ****     if (co2Concentration != 0 && temperature != 0 && rh != 0)
 172              		.loc 1 56 0
ARM GAS  C:\Users\user\AppData\Local\Temp\cc3xHgQY.s 			page 5


 173 005a 65B1     		cbz	r5, .L7
 174              		.loc 1 56 0 is_stmt 0 discriminator 1
 175 005c 5EB1     		cbz	r6, .L7
 176              		.loc 1 56 0 discriminator 2
 177 005e 50B1     		cbz	r0, .L7
  57:main.c        ****     {
  58:main.c        ****         sprintf(string_1, "CO2: %d ppm, Temperature: %d degrees, Relative Humidity: %d%%\n", co2Con
 178              		.loc 1 58 0 is_stmt 1
 179 0060 074C     		ldr	r4, .L10+4
 180 0062 0090     		str	r0, [sp]
 181 0064 3346     		mov	r3, r6
 182 0066 2A46     		mov	r2, r5
 183 0068 0649     		ldr	r1, .L10+8
 184 006a 2046     		mov	r0, r4
 185              	.LVL27:
 186 006c FFF7FEFF 		bl	sprintf
 187              	.LVL28:
  59:main.c        ****         UART_1_PutString(string_1);  // Send output via UART
 188              		.loc 1 59 0
 189 0070 2046     		mov	r0, r4
 190 0072 FFF7FEFF 		bl	UART_1_PutString
 191              	.LVL29:
 192              	.L7:
  60:main.c        ****     }
  61:main.c        **** }
 193              		.loc 1 61 0
 194 0076 02B0     		add	sp, sp, #8
 195              		.cfi_def_cfa_offset 16
 196              		@ sp needed
 197 0078 70BD     		pop	{r4, r5, r6, pc}
 198              	.LVL30:
 199              	.L11:
 200 007a 00BF     		.align	2
 201              	.L10:
 202 007c 00000000 		.word	buffer
 203 0080 00000000 		.word	string_1
 204 0084 00000000 		.word	.LC1
 205              		.cfi_endproc
 206              	.LFE66:
 207              		.size	read_sensor_data, .-read_sensor_data
 208              		.global	__aeabi_i2d
 209              		.global	__aeabi_dmul
 210              		.global	__aeabi_d2f
 211              		.global	__aeabi_f2d
 212              		.global	__aeabi_dcmplt
 213              		.global	__aeabi_ui2d
 214              		.global	__aeabi_ddiv
 215              		.global	__aeabi_fcmpeq
 216              		.global	__aeabi_d2iz
 217              		.section	.text.read_capacitance,"ax",%progbits
 218              		.align	2
 219              		.global	read_capacitance
 220              		.thumb
 221              		.thumb_func
 222              		.type	read_capacitance, %function
 223              	read_capacitance:
 224              	.LFB67:
ARM GAS  C:\Users\user\AppData\Local\Temp\cc3xHgQY.s 			page 6


  62:main.c        **** 
  63:main.c        **** void read_capacitance()
  64:main.c        **** {
 225              		.loc 1 64 0
 226              		.cfi_startproc
 227              		@ args = 0, pretend = 0, frame = 0
 228              		@ frame_needed = 0, uses_anonymous_args = 0
 229 0000 F8B5     		push	{r3, r4, r5, r6, r7, lr}
 230              		.cfi_def_cfa_offset 24
 231              		.cfi_offset 3, -24
 232              		.cfi_offset 4, -20
 233              		.cfi_offset 5, -16
 234              		.cfi_offset 6, -12
 235              		.cfi_offset 7, -8
 236              		.cfi_offset 14, -4
  65:main.c        ****     uint32_t start_time, stop_time;
  66:main.c        ****     float capacitance, voltage;
  67:main.c        ****     
  68:main.c        ****     // Discharge capacitor first
  69:main.c        ****     ChargingPin_Write(0);
 237              		.loc 1 69 0
 238 0002 0020     		movs	r0, #0
 239 0004 FFF7FEFF 		bl	ChargingPin_Write
 240              	.LVL31:
  70:main.c        ****     CyDelay(150);
 241              		.loc 1 70 0
 242 0008 9620     		movs	r0, #150
 243 000a FFF7FEFF 		bl	CyDelay
 244              	.LVL32:
  71:main.c        ****     voltage = 0; //Reset value
  72:main.c        ****     // Reset and start timer
  73:main.c        ****     Timer_1_WriteCounter(0);
 245              		.loc 1 73 0
 246 000e 0020     		movs	r0, #0
 247 0010 FFF7FEFF 		bl	Timer_1_WriteCounter
 248              	.LVL33:
  74:main.c        ****     Timer_1_Start();
 249              		.loc 1 74 0
 250 0014 FFF7FEFF 		bl	Timer_1_Start
 251              	.LVL34:
  75:main.c        ****     // Charge up capacitor
  76:main.c        ****     ChargingPin_Write(1);
 252              		.loc 1 76 0
 253 0018 0120     		movs	r0, #1
 254 001a FFF7FEFF 		bl	ChargingPin_Write
 255              	.LVL35:
  77:main.c        ****     start_time = Timer_1_ReadCounter();
 256              		.loc 1 77 0
 257 001e FFF7FEFF 		bl	Timer_1_ReadCounter
 258              	.LVL36:
 259 0022 0446     		mov	r4, r0
 260              	.LVL37:
  71:main.c        ****     // Reset and start timer
 261              		.loc 1 71 0
 262 0024 0020     		movs	r0, #0
 263              	.LVL38:
  78:main.c        ****     
ARM GAS  C:\Users\user\AppData\Local\Temp\cc3xHgQY.s 			page 7


  79:main.c        ****     while (voltage < VTHRESHOLD)
 264              		.loc 1 79 0
 265 0026 17E0     		b	.L13
 266              	.LVL39:
 267              	.L15:
  80:main.c        ****     {
  81:main.c        ****         // Start ADC conversion
  82:main.c        ****         ADC_SAR_1_StartConvert();
 268              		.loc 1 82 0
 269 0028 FFF7FEFF 		bl	ADC_SAR_1_StartConvert
 270              	.LVL40:
 271              	.L14:
  83:main.c        ****         
  84:main.c        ****         // Wait for the conversion to complete
  85:main.c        ****         do
  86:main.c        ****         {
  87:main.c        ****             adcResult = ADC_SAR_1_IsEndConversion(ADC_SAR_1_RETURN_STATUS);
 272              		.loc 1 87 0 discriminator 1
 273 002c 0120     		movs	r0, #1
 274 002e FFF7FEFF 		bl	ADC_SAR_1_IsEndConversion
 275              	.LVL41:
 276 0032 80B2     		uxth	r0, r0
 277 0034 404B     		ldr	r3, .L20+48
 278 0036 1880     		strh	r0, [r3]	@ movhi
  88:main.c        ****         } while (adcResult == 0);
 279              		.loc 1 88 0 discriminator 1
 280 0038 0028     		cmp	r0, #0
 281 003a F7D0     		beq	.L14
  89:main.c        **** 
  90:main.c        ****         // Read the result (using GetResult16 for a wider range)
  91:main.c        ****         adcResult = ADC_SAR_1_GetResult16(); 
 282              		.loc 1 91 0
 283 003c FFF7FEFF 		bl	ADC_SAR_1_GetResult16
 284              	.LVL42:
 285 0040 80B2     		uxth	r0, r0
 286 0042 3D4B     		ldr	r3, .L20+48
 287 0044 1880     		strh	r0, [r3]	@ movhi
  92:main.c        ****         // Map resulting input voltage
  93:main.c        ****         voltage = (VREF/ADC_MAX_VALUE)*adcResult;
 288              		.loc 1 93 0
 289 0046 FFF7FEFF 		bl	__aeabi_i2d
 290              	.LVL43:
 291 004a 2FA3     		adr	r3, .L20
 292 004c D3E90023 		ldrd	r2, [r3]
 293 0050 FFF7FEFF 		bl	__aeabi_dmul
 294              	.LVL44:
 295 0054 FFF7FEFF 		bl	__aeabi_d2f
 296              	.LVL45:
 297              	.L13:
  79:main.c        ****     {
 298              		.loc 1 79 0
 299 0058 FFF7FEFF 		bl	__aeabi_f2d
 300              	.LVL46:
 301 005c 2CA3     		adr	r3, .L20+8
 302 005e D3E90023 		ldrd	r2, [r3]
 303 0062 FFF7FEFF 		bl	__aeabi_dcmplt
 304              	.LVL47:
ARM GAS  C:\Users\user\AppData\Local\Temp\cc3xHgQY.s 			page 8


 305 0066 0028     		cmp	r0, #0
 306 0068 DED1     		bne	.L15
  94:main.c        ****     }
  95:main.c        ****     stop_time = Timer_1_ReadCounter();
 307              		.loc 1 95 0
 308 006a FFF7FEFF 		bl	Timer_1_ReadCounter
 309              	.LVL48:
 310 006e 0546     		mov	r5, r0
 311              	.LVL49:
  96:main.c        ****     Timer_1_Stop();
 312              		.loc 1 96 0
 313 0070 FFF7FEFF 		bl	Timer_1_Stop
 314              	.LVL50:
  97:main.c        ****     float time_elapsed = (stop_time - start_time) * TIMER_RESOLUTION;
 315              		.loc 1 97 0
 316 0074 281B     		subs	r0, r5, r4
 317 0076 FFF7FEFF 		bl	__aeabi_ui2d
 318              	.LVL51:
 319 007a 27A3     		adr	r3, .L20+16
 320 007c D3E90023 		ldrd	r2, [r3]
 321 0080 FFF7FEFF 		bl	__aeabi_dmul
 322              	.LVL52:
 323 0084 FFF7FEFF 		bl	__aeabi_d2f
 324              	.LVL53:
  98:main.c        ****     capacitance = time_elapsed / R * CORRECTION_FACTOR;
 325              		.loc 1 98 0
 326 0088 FFF7FEFF 		bl	__aeabi_f2d
 327              	.LVL54:
 328 008c 24A3     		adr	r3, .L20+24
 329 008e D3E90023 		ldrd	r2, [r3]
 330 0092 FFF7FEFF 		bl	__aeabi_ddiv
 331              	.LVL55:
 332 0096 0022     		movs	r2, #0
 333 0098 284B     		ldr	r3, .L20+52
 334 009a FFF7FEFF 		bl	__aeabi_dmul
 335              	.LVL56:
 336 009e FFF7FEFF 		bl	__aeabi_d2f
 337              	.LVL57:
 338 00a2 0446     		mov	r4, r0
 339              	.LVL58:
  99:main.c        ****     if (capacitance != 0)
 340              		.loc 1 99 0
 341 00a4 0021     		movs	r1, #0
 342 00a6 FFF7FEFF 		bl	__aeabi_fcmpeq
 343              	.LVL59:
 344 00aa 50BB     		cbnz	r0, .L12
 100:main.c        ****     {
 101:main.c        ****         sprintf(string_1, "Capacitance: %d.%06d nF\n", (int)(capacitance * 1e9), (int)((capacitance
 345              		.loc 1 101 0
 346 00ac 2046     		mov	r0, r4
 347 00ae FFF7FEFF 		bl	__aeabi_f2d
 348              	.LVL60:
 349 00b2 1DA3     		adr	r3, .L20+32
 350 00b4 D3E90023 		ldrd	r2, [r3]
 351 00b8 FFF7FEFF 		bl	__aeabi_dmul
 352              	.LVL61:
 353 00bc 0646     		mov	r6, r0
ARM GAS  C:\Users\user\AppData\Local\Temp\cc3xHgQY.s 			page 9


 354 00be 0F46     		mov	r7, r1
 355 00c0 1BA3     		adr	r3, .L20+40
 356 00c2 D3E90023 		ldrd	r2, [r3]
 357 00c6 FFF7FEFF 		bl	__aeabi_dmul
 358              	.LVL62:
 359 00ca FFF7FEFF 		bl	__aeabi_d2iz
 360              	.LVL63:
 361 00ce 1C4B     		ldr	r3, .L20+56
 362 00d0 83FB0034 		smull	r3, r4, r3, r0
 363              	.LVL64:
 364 00d4 C317     		asrs	r3, r0, #31
 365 00d6 C3EBA443 		rsb	r3, r3, r4, asr #18
 366 00da 1A4C     		ldr	r4, .L20+60
 367 00dc 04FB1304 		mls	r4, r4, r3, r0
 368 00e0 3046     		mov	r0, r6
 369 00e2 3946     		mov	r1, r7
 370 00e4 FFF7FEFF 		bl	__aeabi_d2iz
 371              	.LVL65:
 372 00e8 174D     		ldr	r5, .L20+64
 373              	.LVL66:
 374 00ea 2346     		mov	r3, r4
 375 00ec 0246     		mov	r2, r0
 376 00ee 1749     		ldr	r1, .L20+68
 377 00f0 2846     		mov	r0, r5
 378 00f2 FFF7FEFF 		bl	sprintf
 379              	.LVL67:
 102:main.c        ****         UART_1_PutString(string_1);
 380              		.loc 1 102 0
 381 00f6 2846     		mov	r0, r5
 382 00f8 FFF7FEFF 		bl	UART_1_PutString
 383              	.LVL68:
 103:main.c        ****         CyDelay(100);
 384              		.loc 1 103 0
 385 00fc 6420     		movs	r0, #100
 386 00fe FFF7FEFF 		bl	CyDelay
 387              	.LVL69:
 388              	.L12:
 389 0102 F8BD     		pop	{r3, r4, r5, r6, r7, pc}
 390              	.L21:
 391 0104 AFF30080 		.align	3
 392              	.L20:
 393 0108 14400114 		.word	335626260
 394 010c 4001543F 		.word	1062469952
 395 0110 33333333 		.word	858993459
 396 0114 33330940 		.word	1074344755
 397 0118 8DEDB5A0 		.word	-1598689907
 398 011c F7C6C03E 		.word	1052821239
 399 0120 00000000 		.word	0
 400 0124 0088C340 		.word	1086556160
 401 0128 00000000 		.word	0
 402 012c 65CDCD41 		.word	1104006501
 403 0130 00000000 		.word	0
 404 0134 80842E41 		.word	1093567616
 405 0138 00000000 		.word	adcResult
 406 013c 00408F40 		.word	1083129856
 407 0140 83DE1B43 		.word	1125899907
 408 0144 40420F00 		.word	1000000
ARM GAS  C:\Users\user\AppData\Local\Temp\cc3xHgQY.s 			page 10


 409 0148 00000000 		.word	string_1
 410 014c 40000000 		.word	.LC2
 411              		.cfi_endproc
 412              	.LFE67:
 413              		.size	read_capacitance, .-read_capacitance
 414              		.section	.text.main,"ax",%progbits
 415              		.align	2
 416              		.global	main
 417              		.thumb
 418              		.thumb_func
 419              		.type	main, %function
 420              	main:
 421              	.LFB68:
 104:main.c        ****     }
 105:main.c        **** }
 106:main.c        **** 
 107:main.c        **** 
 108:main.c        **** 
 109:main.c        **** int main(void) {
 422              		.loc 1 109 0
 423              		.cfi_startproc
 424              		@ args = 0, pretend = 0, frame = 16
 425              		@ frame_needed = 0, uses_anonymous_args = 0
 426 0000 00B5     		push	{lr}
 427              		.cfi_def_cfa_offset 4
 428              		.cfi_offset 14, -4
 429 0002 85B0     		sub	sp, sp, #20
 430              		.cfi_def_cfa_offset 24
 110:main.c        ****     CyGlobalIntEnable;
 431              		.loc 1 110 0
 432              		.syntax unified
 433              	@ 110 "main.c" 1
 434 0004 62B6     		CPSIE   i
 435              	@ 0 "" 2
 111:main.c        ****     I2C_1_Start();
 436              		.loc 1 111 0
 437              		.thumb
 438              		.syntax unified
 439 0006 FFF7FEFF 		bl	I2C_1_Start
 440              	.LVL70:
 112:main.c        ****     UART_1_Start();
 441              		.loc 1 112 0
 442 000a FFF7FEFF 		bl	UART_1_Start
 443              	.LVL71:
 113:main.c        ****     ADC_SAR_1_Start();
 444              		.loc 1 113 0
 445 000e FFF7FEFF 		bl	ADC_SAR_1_Start
 446              	.LVL72:
 114:main.c        ****     Timer_1_Start();
 447              		.loc 1 114 0
 448 0012 FFF7FEFF 		bl	Timer_1_Start
 449              	.LVL73:
 115:main.c        **** 
 116:main.c        ****     // Start continuous measurement with 0x0010 command and pressure 0x0000
 117:main.c        ****     uint8_t startCmd[5] = {0x00, 0x10, 0x00, 0x00, 0x81}; // 0x81 is CRC for 0x0000
 450              		.loc 1 117 0
 451 0016 144B     		ldr	r3, .L25
ARM GAS  C:\Users\user\AppData\Local\Temp\cc3xHgQY.s 			page 11


 452 0018 1868     		ldr	r0, [r3]	@ unaligned
 453 001a 0290     		str	r0, [sp, #8]	@ unaligned
 454 001c 1B79     		ldrb	r3, [r3, #4]	@ zero_extendqisi2
 455 001e 8DF80C30 		strb	r3, [sp, #12]
 118:main.c        ****     I2C_Write(startCmd, sizeof(startCmd));
 456              		.loc 1 118 0
 457 0022 0521     		movs	r1, #5
 458 0024 02A8     		add	r0, sp, #8
 459 0026 FFF7FEFF 		bl	I2C_Write
 460              	.LVL74:
 119:main.c        ****     CyDelay(1000); // Allow sensor initialization
 461              		.loc 1 119 0
 462 002a 4FF47A70 		mov	r0, #1000
 463 002e FFF7FEFF 		bl	CyDelay
 464              	.LVL75:
 120:main.c        ****     UART_1_PutString("Starting sensor reading...\n");
 465              		.loc 1 120 0
 466 0032 0E48     		ldr	r0, .L25+4
 467 0034 FFF7FEFF 		bl	UART_1_PutString
 468              	.LVL76:
 469              	.L23:
 470              	.LBB2:
 121:main.c        **** 
 122:main.c        ****     for(;;) 
 123:main.c        ****     {
 124:main.c        ****         // Command to read data (0x0300)
 125:main.c        ****         uint8_t readCmd[2] = {0x03, 0x00};
 471              		.loc 1 125 0 discriminator 1
 472 0038 0323     		movs	r3, #3
 473 003a 8DF80430 		strb	r3, [sp, #4]
 474 003e 0023     		movs	r3, #0
 475 0040 8DF80530 		strb	r3, [sp, #5]
 126:main.c        ****         I2C_Write(readCmd, sizeof(readCmd));
 476              		.loc 1 126 0 discriminator 1
 477 0044 0221     		movs	r1, #2
 478 0046 01A8     		add	r0, sp, #4
 479 0048 FFF7FEFF 		bl	I2C_Write
 480              	.LVL77:
 127:main.c        ****         CyDelay(300); // Wait for command processing
 481              		.loc 1 127 0 discriminator 1
 482 004c 4FF49670 		mov	r0, #300
 483 0050 FFF7FEFF 		bl	CyDelay
 484              	.LVL78:
 128:main.c        ****         read_sensor_data();
 485              		.loc 1 128 0 discriminator 1
 486 0054 FFF7FEFF 		bl	read_sensor_data
 487              	.LVL79:
 129:main.c        ****         CyDelay(1000); // Match measurement interval
 488              		.loc 1 129 0 discriminator 1
 489 0058 4FF47A70 		mov	r0, #1000
 490 005c FFF7FEFF 		bl	CyDelay
 491              	.LVL80:
 130:main.c        ****         read_capacitance();
 492              		.loc 1 130 0 discriminator 1
 493 0060 FFF7FEFF 		bl	read_capacitance
 494              	.LVL81:
 495 0064 E8E7     		b	.L23
ARM GAS  C:\Users\user\AppData\Local\Temp\cc3xHgQY.s 			page 12


 496              	.L26:
 497 0066 00BF     		.align	2
 498              	.L25:
 499 0068 00000000 		.word	.LANCHOR0
 500 006c 5C000000 		.word	.LC3
 501              	.LBE2:
 502              		.cfi_endproc
 503              	.LFE68:
 504              		.size	main, .-main
 505              		.comm	adcResult,2,2
 506              		.comm	buffer,18,4
 507              		.comm	string_1,100,4
 508              		.section	.rodata
 509              		.align	2
 510              		.set	.LANCHOR0,. + 0
 511              	.LC0:
 512 0000 00       		.byte	0
 513 0001 10       		.byte	16
 514 0002 00       		.byte	0
 515 0003 00       		.byte	0
 516 0004 81       		.byte	-127
 517              		.section	.rodata.str1.4,"aMS",%progbits,1
 518              		.align	2
 519              	.LC1:
 520 0000 434F323A 		.ascii	"CO2: %d ppm, Temperature: %d degrees, Relative Humi"
 520      20256420 
 520      70706D2C 
 520      2054656D 
 520      70657261 
 521 0033 64697479 		.ascii	"dity: %d%%\012\000"
 521      3A202564 
 521      25250A00 
 522 003f 00       		.space	1
 523              	.LC2:
 524 0040 43617061 		.ascii	"Capacitance: %d.%06d nF\012\000"
 524      63697461 
 524      6E63653A 
 524      2025642E 
 524      25303664 
 525 0059 000000   		.space	3
 526              	.LC3:
 527 005c 53746172 		.ascii	"Starting sensor reading...\012\000"
 527      74696E67 
 527      2073656E 
 527      736F7220 
 527      72656164 
 528              		.text
 529              	.Letext0:
 530              		.file 2 "c:\\program files (x86)\\cypress\\psoc creator\\4.4\\psoc creator\\import\\gnu\\arm\\5.4.
 531              		.file 3 "c:\\program files (x86)\\cypress\\psoc creator\\4.4\\psoc creator\\import\\gnu\\arm\\5.4.
 532              		.file 4 "Generated_Source\\PSoC5/cytypes.h"
 533              		.file 5 "Generated_Source\\PSoC5/core_cm3.h"
 534              		.file 6 "Generated_Source\\PSoC5/I2C_1.h"
 535              		.file 7 "c:\\program files (x86)\\cypress\\psoc creator\\4.4\\psoc creator\\import\\gnu\\arm\\5.4.
 536              		.file 8 "Generated_Source\\PSoC5/UART_1.h"
 537              		.file 9 "Generated_Source\\PSoC5/ChargingPin.h"
 538              		.file 10 "Generated_Source\\PSoC5/CyLib.h"
ARM GAS  C:\Users\user\AppData\Local\Temp\cc3xHgQY.s 			page 13


 539              		.file 11 "Generated_Source\\PSoC5/Timer_1.h"
 540              		.file 12 "Generated_Source\\PSoC5/ADC_SAR_1.h"